target datalayout = "e-m:e-p270:32:32-p271:32:32-p272:64:64-i64:64-i128:128-f80:128-n8:16:32:64-S128"
target triple = "x86_64-pc-linux-gnu"

%struct.pg_compress_specification = type { i32, i32, i32, i32, i8, ptr }
%struct._archiveHandle = type { %struct.Archive, i32, ptr, ptr, i64, i64, i32, %struct.sqlparseInfo, i64, i32, ptr, i64, i64, i64, ptr, ptr, ptr, ptr, ptr, ptr, ptr, ptr, ptr, ptr, ptr, ptr, ptr, ptr, ptr, ptr, ptr, ptr, ptr, ptr, ptr, ptr, ptr, ptr, ptr, ptr, ptr, ptr, ptr, ptr, i32, i32, i8, i32, i8, i32, ptr, ptr, ptr, ptr, i32, i32, ptr, ptr, ptr, %struct.pg_compress_specification, i8, i32, i32, ptr, ptr, ptr, ptr, ptr, i32, ptr, i64, i64, i32, i32, i32, i32, ptr, ptr }
%struct.Archive = type { ptr, ptr, i32, ptr, i32, i8, i32, i32, i32, ptr, i32, i8, ptr, ptr, i8, i32, ptr }
%struct.sqlparseInfo = type { i32, i8, ptr }

@.str.70 = private unnamed_addr constant [33 x i8] c"SELECT pg_catalog.lo_close(0);\0A\0A\00", align 1

; Function Attrs: nounwind uwtable
define dso_local void @EndRestoreLO(ptr noundef %0, i32 noundef %1) #0 {
  %3 = alloca ptr, align 8
  %4 = alloca i32, align 4
  store ptr %0, ptr %3, align 8
  store i32 %1, ptr %4, align 4
  %5 = load ptr, ptr %3, align 8
  %6 = getelementptr inbounds nuw %struct._archiveHandle, ptr %5, i32 0, i32 70
  %7 = load i64, ptr %6, align 8
  %8 = icmp ugt i64 %7, 0
  br i1 %8, label %9, label %11

9:                                                ; preds = %2
  %10 = load ptr, ptr %3, align 8
  call void @dump_lo_buf(ptr noundef %10)
  br label %11

11:                                               ; preds = %9, %2
  %12 = load ptr, ptr %3, align 8
  %13 = getelementptr inbounds nuw %struct._archiveHandle, ptr %12, i32 0, i32 48
  store i8 0, ptr %13, align 8
  %14 = load ptr, ptr %3, align 8
  %15 = getelementptr inbounds nuw %struct._archiveHandle, ptr %14, i32 0, i32 42
  %16 = load ptr, ptr %15, align 8
  %17 = icmp ne ptr %16, null
  br i1 %17, label %18, label %28

18:                                               ; preds = %11
  %19 = load ptr, ptr %3, align 8
  %20 = getelementptr inbounds nuw %struct._archiveHandle, ptr %19, i32 0, i32 42
  %21 = load ptr, ptr %20, align 8
  %22 = load ptr, ptr %3, align 8
  %23 = getelementptr inbounds nuw %struct._archiveHandle, ptr %22, i32 0, i32 47
  %24 = load i32, ptr %23, align 4
  %25 = call i32 @lo_close(ptr noundef %21, i32 noundef %24)
  %26 = load ptr, ptr %3, align 8
  %27 = getelementptr inbounds nuw %struct._archiveHandle, ptr %26, i32 0, i32 47
  store i32 -1, ptr %27, align 4
  br label %31

28:                                               ; preds = %11
  %29 = load ptr, ptr %3, align 8
  %30 = call i32 (ptr, ptr, ...) @ahprintf(ptr noundef %29, ptr noundef @.str.70)
  br label %31

31:                                               ; preds = %28, %18
  ret void
}