; Function Attrs: nounwind uwtable
define dso_local void @EndRestoreLO(ptr noundef %0, i32 noundef %1) local_unnamed_addr #0 {
  %3 = getelementptr inbounds nuw i8, ptr %0, i64 648
  %4 = load i64, ptr %3, align 8
  %.not = icmp eq i64 %4, 0
  br i1 %.not, label %6, label %5

5:                                                ; preds = %2
  tail call fastcc void @dump_lo_buf(ptr noundef nonnull %0)
  br label %6

6:                                                ; preds = %5, %2
  %7 = getelementptr inbounds nuw i8, ptr %0, i64 472
  store i8 0, ptr %7, align 8
  %8 = getelementptr inbounds nuw i8, ptr %0, i64 440
  %9 = load ptr, ptr %8, align 8
  %.not8 = icmp eq ptr %9, null
  br i1 %.not8, label %14, label %10

10:                                               ; preds = %6
  %11 = getelementptr inbounds nuw i8, ptr %0, i64 468
  %12 = load i32, ptr %11, align 4
  %13 = tail call i32 @lo_close(ptr noundef nonnull %9, i32 noundef %12) #22
  store i32 -1, ptr %11, align 4
  br label %16

14:                                               ; preds = %6
  %15 = tail call i32 (ptr, ptr, ...) @ahprintf(ptr noundef nonnull %0, ptr noundef nonnull @.str.70)
  br label %16

16:                                               ; preds = %14, %10
  ret void
}